; Function Attrs: mustprogress nounwind uwtable
define internal fastcc void @_ZN12_GLOBAL__N_116OptMuxtreeWorker9bitinfo_tD2Ev(ptr nocapture noundef nonnull readonly align 8 dereferenceable(120) %0) unnamed_addr #3 align 2 personality ptr @__gxx_personality_v0 {
  %2 = getelementptr inbounds i8, ptr %0, i64 64
  %3 = getelementptr inbounds i8, ptr %0, i64 88
  %4 = load ptr, ptr %3, align 8
  %.not.i.i.i.i = icmp eq ptr %4, null
  br i1 %.not.i.i.i.i, label %_ZNSt6vectorIN5Yosys7hashlib4poolIiNS1_8hash_opsIiEEE7entry_tESaIS6_EED2Ev.exit.i, label %5

5:                                                ; preds = %1
  tail call void @_ZdlPv(ptr noundef nonnull %4) #18
  br label %_ZNSt6vectorIN5Yosys7hashlib4poolIiNS1_8hash_opsIiEEE7entry_tESaIS6_EED2Ev.exit.i

_ZNSt6vectorIN5Yosys7hashlib4poolIiNS1_8hash_opsIiEEE7entry_tESaIS6_EED2Ev.exit.i: ; preds = %5, %1
  %6 = load ptr, ptr %2, align 8
  %.not.i.i.i1.i = icmp eq ptr %6, null
  br i1 %.not.i.i.i1.i, label %_ZN5Yosys7hashlib4poolIiNS0_8hash_opsIiEEED2Ev.exit, label %7

7:                                                ; preds = %_ZNSt6vectorIN5Yosys7hashlib4poolIiNS1_8hash_opsIiEEE7entry_tESaIS6_EED2Ev.exit.i
  tail call void @_ZdlPv(ptr noundef nonnull %6) #18
  br label %_ZN5Yosys7hashlib4poolIiNS0_8hash_opsIiEEED2Ev.exit

_ZN5Yosys7hashlib4poolIiNS0_8hash_opsIiEEED2Ev.exit: ; preds = %_ZNSt6vectorIN5Yosys7hashlib4poolIiNS1_8hash_opsIiEEE7entry_tESaIS6_EED2Ev.exit.i, %7
  %8 = getelementptr inbounds i8, ptr %0, i64 8
  %9 = getelementptr inbounds i8, ptr %0, i64 32
  %10 = load ptr, ptr %9, align 8
  %.not.i.i.i.i1 = icmp eq ptr %10, null
  br i1 %.not.i.i.i.i1, label %_ZNSt6vectorIN5Yosys7hashlib4poolIiNS1_8hash_opsIiEEE7entry_tESaIS6_EED2Ev.exit.i2, label %11

11:                                               ; preds = %_ZN5Yosys7hashlib4poolIiNS0_8hash_opsIiEEED2Ev.exit
  tail call void @_ZdlPv(ptr noundef nonnull %10) #18
  br label %_ZNSt6vectorIN5Yosys7hashlib4poolIiNS1_8hash_opsIiEEE7entry_tESaIS6_EED2Ev.exit.i2

_ZNSt6vectorIN5Yosys7hashlib4poolIiNS1_8hash_opsIiEEE7entry_tESaIS6_EED2Ev.exit.i2: ; preds = %11, %_ZN5Yosys7hashlib4poolIiNS0_8hash_opsIiEEED2Ev.exit
  %12 = load ptr, ptr %8, align 8
  %.not.i.i.i1.i3 = icmp eq ptr %12, null
  br i1 %.not.i.i.i1.i3, label %_ZN5Yosys7hashlib4poolIiNS0_8hash_opsIiEEED2Ev.exit4, label %13

13:                                               ; preds = %_ZNSt6vectorIN5Yosys7hashlib4poolIiNS1_8hash_opsIiEEE7entry_tESaIS6_EED2Ev.exit.i2
  tail call void @_ZdlPv(ptr noundef nonnull %12) #18
  br label %_ZN5Yosys7hashlib4poolIiNS0_8hash_opsIiEEED2Ev.exit4

_ZN5Yosys7hashlib4poolIiNS0_8hash_opsIiEEED2Ev.exit4: ; preds = %_ZNSt6vectorIN5Yosys7hashlib4poolIiNS1_8hash_opsIiEEE7entry_tESaIS6_EED2Ev.exit.i2, %13
  ret void
}